
app.elf:     file format elf32-littleriscv


Disassembly of section .text:

00000000 <_start>:
   0:	0080006f          	j	8 <init_reg>

00000004 <_end>:
   4:	0000006f          	j	4 <_end>

00000008 <init_reg>:
   8:	00000093          	li	ra,0
   c:	00000113          	li	sp,0
  10:	00000193          	li	gp,0
  14:	00000213          	li	tp,0
  18:	00000293          	li	t0,0
  1c:	00000313          	li	t1,0
  20:	00000393          	li	t2,0
  24:	00000413          	li	s0,0
  28:	00000493          	li	s1,0
  2c:	00000513          	li	a0,0
  30:	00000593          	li	a1,0
  34:	00000613          	li	a2,0
  38:	00000693          	li	a3,0
  3c:	00000713          	li	a4,0
  40:	00000793          	li	a5,0
  44:	00000813          	li	a6,0
  48:	00000893          	li	a7,0
  4c:	00000913          	li	s2,0
  50:	00000993          	li	s3,0
  54:	00000a13          	li	s4,0
  58:	00000a93          	li	s5,0
  5c:	00000b13          	li	s6,0
  60:	00000b93          	li	s7,0
  64:	00000c13          	li	s8,0
  68:	00000c93          	li	s9,0
  6c:	00000d13          	li	s10,0
  70:	00000d93          	li	s11,0
  74:	00000e13          	li	t3,0
  78:	00000e93          	li	t4,0
  7c:	00000f13          	li	t5,0
  80:	00000f93          	li	t6,0
  84:	00004137          	lui	sp,0x4

00000088 <call_main>:
  88:	11c000ef          	jal	ra,1a4 <main>
  8c:	f79ff06f          	j	4 <_end>

00000090 <digital_write>:
  90:	00100793          	li	a5,1
  94:	02f58463          	beq	a1,a5,bc <digital_write+0x2c>
  98:	02059063          	bnez	a1,b8 <digital_write+0x28>
  9c:	00020737          	lui	a4,0x20
  a0:	05072583          	lw	a1,80(a4) # 20050 <stack_top+0x1c050>
  a4:	00a797b3          	sll	a5,a5,a0
  a8:	fff7c793          	not	a5,a5
  ac:	00b7f7b3          	and	a5,a5,a1
  b0:	0ff7f793          	andi	a5,a5,255
  b4:	04f70823          	sb	a5,80(a4)
  b8:	00008067          	ret
  bc:	000207b7          	lui	a5,0x20
  c0:	0507a703          	lw	a4,80(a5) # 20050 <stack_top+0x1c050>
  c4:	00a595b3          	sll	a1,a1,a0
  c8:	00e5e5b3          	or	a1,a1,a4
  cc:	0ff5f593          	andi	a1,a1,255
  d0:	04b78823          	sb	a1,80(a5)
  d4:	00008067          	ret

000000d8 <digital_read>:
  d8:	000207b7          	lui	a5,0x20
  dc:	0407a783          	lw	a5,64(a5) # 20040 <stack_top+0x1c040>
  e0:	40a7d533          	sra	a0,a5,a0
  e4:	00157513          	andi	a0,a0,1
  e8:	00008067          	ret

000000ec <serial_write>:
  ec:	000207b7          	lui	a5,0x20
  f0:	0107a703          	lw	a4,16(a5) # 20010 <stack_top+0x1c010>
  f4:	00003837          	lui	a6,0x3
  f8:	edf80593          	addi	a1,a6,-289 # 2edf <__bss_end+0xedb>
  fc:	00100693          	li	a3,1
 100:	00020637          	lui	a2,0x20
 104:	ee080813          	addi	a6,a6,-288
 108:	01062783          	lw	a5,16(a2) # 20010 <stack_top+0x1c010>
 10c:	40e787b3          	sub	a5,a5,a4
 110:	00f5fc63          	bgeu	a1,a5,128 <serial_write+0x3c>
 114:	01062783          	lw	a5,16(a2)
 118:	01070733          	add	a4,a4,a6
 11c:	fff68693          	addi	a3,a3,-1
 120:	40e787b3          	sub	a5,a5,a4
 124:	fef5e8e3          	bltu	a1,a5,114 <serial_write+0x28>
 128:	01062783          	lw	a5,16(a2)
 12c:	00e7f463          	bgeu	a5,a4,134 <serial_write+0x48>
 130:	01062703          	lw	a4,16(a2)
 134:	fc069ae3          	bnez	a3,108 <serial_write+0x1c>
 138:	000207b7          	lui	a5,0x20
 13c:	02a78023          	sb	a0,32(a5) # 20020 <stack_top+0x1c020>
 140:	00008067          	ret

00000144 <serial_read>:
 144:	000207b7          	lui	a5,0x20
 148:	0307a503          	lw	a0,48(a5) # 20030 <stack_top+0x1c030>
 14c:	0ff57513          	andi	a0,a0,255
 150:	00008067          	ret

00000154 <delay>:
 154:	000207b7          	lui	a5,0x20
 158:	0107a703          	lw	a4,16(a5) # 20010 <stack_top+0x1c010>
 15c:	04050263          	beqz	a0,1a0 <delay+0x4c>
 160:	000035b7          	lui	a1,0x3
 164:	edf58613          	addi	a2,a1,-289 # 2edf <__bss_end+0xedb>
 168:	000206b7          	lui	a3,0x20
 16c:	ee058593          	addi	a1,a1,-288
 170:	0106a783          	lw	a5,16(a3) # 20010 <stack_top+0x1c010>
 174:	40e787b3          	sub	a5,a5,a4
 178:	00f67c63          	bgeu	a2,a5,190 <delay+0x3c>
 17c:	0106a783          	lw	a5,16(a3)
 180:	00b70733          	add	a4,a4,a1
 184:	fff50513          	addi	a0,a0,-1
 188:	40e787b3          	sub	a5,a5,a4
 18c:	fef668e3          	bltu	a2,a5,17c <delay+0x28>
 190:	0106a783          	lw	a5,16(a3)
 194:	00e7f463          	bgeu	a5,a4,19c <delay+0x48>
 198:	0106a703          	lw	a4,16(a3)
 19c:	fc051ae3          	bnez	a0,170 <delay+0x1c>
 1a0:	00008067          	ret

Disassembly of section .text.startup:

000001a4 <main>:
 1a4:	ff010113          	addi	sp,sp,-16 # 3ff0 <__bss_end+0x1fec>
 1a8:	00812423          	sw	s0,8(sp)
 1ac:	00001437          	lui	s0,0x1
 1b0:	00912223          	sw	s1,4(sp)
 1b4:	00112623          	sw	ra,12(sp)
 1b8:	000024b7          	lui	s1,0x2
 1bc:	bb840413          	addi	s0,s0,-1096 # bb8 <main+0xa14>
 1c0:	04800513          	li	a0,72
 1c4:	f29ff0ef          	jal	ra,ec <serial_write>
 1c8:	04500513          	li	a0,69
 1cc:	f21ff0ef          	jal	ra,ec <serial_write>
 1d0:	04c00513          	li	a0,76
 1d4:	f19ff0ef          	jal	ra,ec <serial_write>
 1d8:	04c00513          	li	a0,76
 1dc:	f11ff0ef          	jal	ra,ec <serial_write>
 1e0:	04f00513          	li	a0,79
 1e4:	f09ff0ef          	jal	ra,ec <serial_write>
 1e8:	02000513          	li	a0,32
 1ec:	f01ff0ef          	jal	ra,ec <serial_write>
 1f0:	0004a783          	lw	a5,0(s1) # 2000 <a>
 1f4:	05200513          	li	a0,82
 1f8:	ef5ff0ef          	jal	ra,ec <serial_write>
 1fc:	04900513          	li	a0,73
 200:	eedff0ef          	jal	ra,ec <serial_write>
 204:	05300513          	li	a0,83
 208:	ee5ff0ef          	jal	ra,ec <serial_write>
 20c:	04300513          	li	a0,67
 210:	eddff0ef          	jal	ra,ec <serial_write>
 214:	02d00513          	li	a0,45
 218:	ed5ff0ef          	jal	ra,ec <serial_write>
 21c:	05600513          	li	a0,86
 220:	ecdff0ef          	jal	ra,ec <serial_write>
 224:	00040513          	mv	a0,s0
 228:	f2dff0ef          	jal	ra,154 <delay>
 22c:	f95ff06f          	j	1c0 <main+0x1c>
